; Function Attrs: mustprogress nounwind uwtable
define dso_local noundef zeroext i1 @_ZN8simdjson13validate_utf8EPKcm(ptr noundef %0, i64 noundef %1) local_unnamed_addr #6 personality ptr @__gxx_personality_v0 {
  %3 = load atomic i8, ptr @_ZGVZN8simdjson25get_active_implementationEvE59detect_best_supported_implementation_on_first_use_singleton acquire, align 8
  %4 = icmp eq i8 %3, 0
  br i1 %4, label %5, label %9, !prof !51

5:                                                ; preds = %2
  %6 = tail call i32 @__cxa_guard_acquire(ptr nonnull @_ZGVZN8simdjson25get_active_implementationEvE59detect_best_supported_implementation_on_first_use_singleton) #45
  %.not.i = icmp eq i32 %6, 0
  br i1 %.not.i, label %9, label %7

7:                                                ; preds = %5
  store i64 23, ptr getelementptr inbounds nuw (i8, ptr @_ZZN8simdjson25get_active_implementationEvE59detect_best_supported_implementation_on_first_use_singleton, i64 8), align 8, !tbaa !11
  store ptr @.str.43, ptr getelementptr inbounds nuw (i8, ptr @_ZZN8simdjson25get_active_implementationEvE59detect_best_supported_implementation_on_first_use_singleton, i64 16), align 8, !tbaa !18
  store i64 53, ptr getelementptr inbounds nuw (i8, ptr @_ZZN8simdjson25get_active_implementationEvE59detect_best_supported_implementation_on_first_use_singleton, i64 24), align 8, !tbaa !11
  store ptr @.str.44, ptr getelementptr inbounds nuw (i8, ptr @_ZZN8simdjson25get_active_implementationEvE59detect_best_supported_implementation_on_first_use_singleton, i64 32), align 8, !tbaa !18
  store i32 0, ptr getelementptr inbounds nuw (i8, ptr @_ZZN8simdjson25get_active_implementationEvE59detect_best_supported_implementation_on_first_use_singleton, i64 40), align 8, !tbaa !52
  store ptr getelementptr inbounds nuw inrange(-16, 48) (i8, ptr @_ZTVN8simdjson8internal49detect_best_supported_implementation_on_first_useE, i64 16), ptr @_ZZN8simdjson25get_active_implementationEvE59detect_best_supported_implementation_on_first_use_singleton, align 8, !tbaa !47
  %8 = tail call ptr @llvm.invariant.start.p0(i64 48, ptr nonnull @_ZZN8simdjson25get_active_implementationEvE59detect_best_supported_implementation_on_first_use_singleton)
  tail call void @__cxa_guard_release(ptr nonnull @_ZGVZN8simdjson25get_active_implementationEvE59detect_best_supported_implementation_on_first_use_singleton) #45
  br label %9

9:                                                ; preds = %7, %5, %2
  %10 = load atomic i8, ptr @_ZGVZN8simdjson25get_active_implementationEvE21active_implementation acquire, align 8
  %11 = icmp eq i8 %10, 0
  br i1 %11, label %12, label %_ZN8simdjson25get_active_implementationEv.exit, !prof !51

12:                                               ; preds = %9
  %13 = tail call i32 @__cxa_guard_acquire(ptr nonnull @_ZGVZN8simdjson25get_active_implementationEvE21active_implementation) #45
  %.not1.i = icmp eq i32 %13, 0
  br i1 %.not1.i, label %_ZN8simdjson25get_active_implementationEv.exit, label %14

14:                                               ; preds = %12
  store ptr @_ZZN8simdjson25get_active_implementationEvE59detect_best_supported_implementation_on_first_use_singleton, ptr @_ZZN8simdjson25get_active_implementationEvE21active_implementation, align 8, !tbaa !64
  tail call void @__cxa_guard_release(ptr nonnull @_ZGVZN8simdjson25get_active_implementationEvE21active_implementation) #45
  br label %_ZN8simdjson25get_active_implementationEv.exit

_ZN8simdjson25get_active_implementationEv.exit:   ; preds = %14, %12, %9
  %15 = load atomic i64, ptr @_ZZN8simdjson25get_active_implementationEvE21active_implementation seq_cst, align 8
  %.0.i.i.i = inttoptr i64 %15 to ptr
  %16 = load ptr, ptr %.0.i.i.i, align 8, !tbaa !47
  %17 = getelementptr inbounds nuw i8, ptr %16, i64 40
  %18 = load ptr, ptr %17, align 8
  %19 = tail call noundef zeroext i1 %18(ptr noundef nonnull align 8 dereferenceable(44) %.0.i.i.i, ptr noundef %0, i64 noundef %1) #45
  ret i1 %19
}